; Function Attrs: null_pointer_is_valid sspstrong uwtable
define internal fastcc range(i32 -2147483648, 2147483646) i32 @dissect_ms_ep_general_body(ptr noundef %0, ptr noundef %1) unnamed_addr #1 {
  %3 = load i32, ptr @hf_ms_ep_gen_numjacks, align 4
  %4 = tail call ptr @proto_tree_add_item(ptr noundef %1, i32 noundef %3, ptr noundef %0, i32 noundef 3, i32 noundef 1, i32 noundef -2147483648)
  %5 = tail call zeroext i8 @tvb_get_uint8(ptr noundef %0, i32 noundef 3)
  %.not1 = icmp eq i8 %5, 0
  br i1 %.not1, label %._crit_edge, label %.lr.ph

.lr.ph:                                           ; preds = %2, %.lr.ph
  %.03 = phi i8 [ %9, %.lr.ph ], [ %5, %2 ]
  %.0142 = phi i32 [ %8, %.lr.ph ], [ 4, %2 ]
  %6 = load i32, ptr @hf_ms_ep_gen_baassocjackid, align 4
  %7 = tail call ptr @proto_tree_add_item(ptr noundef %1, i32 noundef %6, ptr noundef %0, i32 noundef %.0142, i32 noundef 1, i32 noundef -2147483648)
  %8 = add nuw nsw i32 %.0142, 1
  %9 = add i8 %.03, -1
  %.not = icmp eq i8 %9, 0
  br i1 %.not, label %._crit_edge.loopexit, label %.lr.ph, !llvm.loop !21

._crit_edge.loopexit:                             ; preds = %.lr.ph
  %10 = add nsw i32 %.0142, -2
  br label %._crit_edge

._crit_edge:                                      ; preds = %._crit_edge.loopexit, %2
  %.014.lcssa = phi i32 [ 1, %2 ], [ %10, %._crit_edge.loopexit ]
  ret i32 %.014.lcssa
}